; Function Attrs: null_pointer_is_valid sspstrong uwtable
define internal i32 @dissect_pmip6_opt_mhipv6ap(ptr noundef %0, ptr noundef %1, ptr noundef %2, ptr readnone captures(none) %3) #0 {
  %5 = alloca ptr, align 8
  call void @llvm.lifetime.start.p0(i64 8, ptr nonnull %5) #5
  %6 = tail call i32 @tvb_reported_length(ptr noundef %0)
  %7 = add i32 %6, -2
  %8 = load i32, ptr @proto_mip6_option_mhipv6ap, align 4
  %9 = load i32, ptr @ett_pmip6_opt_mhipv6ap, align 4
  %10 = call fastcc ptr @mip6_fixed_option_header(ptr noundef %2, ptr noundef %1, ptr noundef %0, i32 noundef %8, i32 noundef %9, ptr noundef nonnull %5, i32 noundef %7, i32 noundef 18)
  %11 = load i32, ptr @hf_mip6_opt_mhipv6ap_opt_code, align 4
  %12 = tail call ptr @proto_tree_add_item(ptr noundef %10, i32 noundef %11, ptr noundef %0, i32 noundef 2, i32 noundef 1, i32 noundef 0)
  %13 = tail call zeroext i8 @tvb_get_uint8(ptr noundef %0, i32 noundef 3)
  %14 = load i32, ptr @hf_mip6_opt_mhipv6ap_prefix_l, align 4
  %15 = tail call ptr @proto_tree_add_item(ptr noundef %10, i32 noundef %14, ptr noundef %0, i32 noundef 3, i32 noundef 1, i32 noundef 0)
  %16 = load i32, ptr @hf_mip6_opt_mhipv6ap_ipv6_address, align 4
  %17 = tail call ptr @proto_tree_add_item(ptr noundef %10, i32 noundef %16, ptr noundef %0, i32 noundef 4, i32 noundef 16, i32 noundef 0)
  %18 = load i32, ptr @hf_mip6_opt_mhipv6ap_ipv6_address_prefix, align 4
  %19 = getelementptr inbounds nuw i8, ptr %1, i64 408
  %20 = load ptr, ptr %19, align 8
  %21 = tail call ptr @tvb_address_to_str(ptr noundef %20, ptr noundef %0, i32 noundef 3, i32 noundef 4)
  %22 = tail call ptr @proto_tree_add_string(ptr noundef %10, i32 noundef %18, ptr noundef %0, i32 noundef 3, i32 noundef 17, ptr noundef %21)
  %23 = zext i8 %13 to i32
  tail call void (ptr, ptr, ...) @proto_item_append_text(ptr noundef %22, ptr noundef nonnull @.str.759, i32 noundef %23)
  %.not.i = icmp eq ptr %22, null
  br i1 %.not.i, label %proto_item_set_generated.exit, label %24

24:                                               ; preds = %4
  %25 = getelementptr inbounds nuw i8, ptr %22, i64 40
  %26 = load ptr, ptr %25, align 8
  %.not5.i = icmp eq ptr %26, null
  br i1 %.not5.i, label %proto_item_set_generated.exit, label %27

27:                                               ; preds = %24
  %28 = getelementptr inbounds nuw i8, ptr %26, i64 28
  %29 = load i32, ptr %28, align 4
  %30 = or i32 %29, 2
  store i32 %30, ptr %28, align 4
  br label %proto_item_set_generated.exit

proto_item_set_generated.exit:                    ; preds = %4, %24, %27
  %31 = tail call i32 @tvb_captured_length(ptr noundef %0)
  call void @llvm.lifetime.end.p0(i64 8, ptr nonnull %5) #5
  ret i32 %31
}